target datalayout = "e-m:e-p270:32:32-p271:32:32-p272:64:64-i64:64-i128:128-f80:128-n8:16:32:64-S128"
target triple = "x86_64-pc-linux-gnu"

%struct.curltime = type { i64, i32 }
%struct.Curl_easy = type { i32, i64, i64, ptr, %struct.Curl_llist_node, %struct.Curl_llist_node, i32, i32, %struct.Curl_message, %struct.easy_pollset, %struct.Names, ptr, ptr, ptr, ptr, %struct.SingleRequest, %struct.UserDefined, ptr, ptr, ptr, %struct.Progress, %struct.UrlState, ptr, %struct.PureInfo, %struct.curl_tlssessioninfo }
%struct.Curl_llist_node = type { ptr, ptr, ptr, ptr }
%struct.Curl_message = type { %struct.Curl_llist_node, %struct.CURLMsg }
%struct.CURLMsg = type { i32, ptr, %union.anon }
%union.anon = type { ptr }
%struct.easy_pollset = type { [5 x i32], i32, [5 x i8] }
%struct.Names = type { ptr, i32 }
%struct.SingleRequest = type <{ i64, i64, i64, i64, %struct.curltime, i32, i32, i32, i32, i64, i32, i32, i8, i8, [2 x i8], i32, ptr, ptr, %struct.bufq, i64, i64, ptr, ptr, %union.anon.0, ptr, i8, i32, [3 x i8] }>
%struct.bufq = type { ptr, ptr, ptr, ptr, i64, i64, i64, i32 }
%union.anon.0 = type { ptr }
%struct.UserDefined = type <{ ptr, ptr, ptr, ptr, ptr, ptr, i64, i64, i64, ptr, ptr, i64, ptr, ptr, ptr, ptr, ptr, ptr, ptr, ptr, ptr, ptr, ptr, ptr, ptr, ptr, ptr, ptr, ptr, ptr, ptr, ptr, ptr, ptr, ptr, i64, i64, i64, i64, i64, i64, i64, i64, i64, ptr, ptr, %struct.curl_mimepart, ptr, ptr, ptr, i64, %struct.ssl_config_data, %struct.ssl_config_data, ptr, i16, i8, i8, %struct.ssl_general_config, i32, i32, i32, [4 x i8], ptr, ptr, i64, i32, i8, i8, i8, i8, ptr, ptr, ptr, i32, [4 x i8], [74 x ptr], [8 x ptr], i32, i32, i32, [4 x i8], ptr, i32, [4 x i8], ptr, ptr, ptr, ptr, ptr, i32, i32, i32, i32, i32, i32, i32, i32, i64, ptr, ptr, i64, ptr, i64, ptr, ptr, ptr, ptr, i32, i16, i16, i16, i8, i8, i8, i8, i8, i8, i8, i8, i64, [6 x i8] }>
%struct.curl_mimepart = type { ptr, ptr, i32, i32, ptr, ptr, ptr, ptr, ptr, ptr, ptr, ptr, ptr, ptr, ptr, i64, %struct.mime_state, ptr, %struct.mime_encoder_state, i64 }
%struct.mime_state = type { i32, ptr, i64 }
%struct.mime_encoder_state = type { i64, i64, i64, [256 x i8] }
%struct.ssl_config_data = type { %struct.ssl_primary_config, i64, ptr, ptr, ptr, ptr, ptr, ptr, ptr, i16 }
%struct.ssl_primary_config = type { ptr, ptr, ptr, ptr, ptr, ptr, ptr, ptr, ptr, ptr, ptr, ptr, ptr, ptr, i8, i32, i8, i8 }
%struct.ssl_general_config = type { i32 }
%struct.Progress = type { i64, %struct.pgrs_dir, %struct.pgrs_dir, i64, i64, i32, i32, i64, i64, i64, i64, i64, i64, i64, i64, i64, %struct.curltime, %struct.curltime, %struct.curltime, %struct.curltime, %struct.curltime, [6 x i64], [6 x %struct.curltime], i32, i8 }
%struct.pgrs_dir = type { i64, i64, i64, %struct.pgrs_measure }
%struct.pgrs_measure = type { %struct.curltime, i64 }
%struct.UrlState = type { %struct.curltime, i64, i64, %struct.dynbuf, ptr, i64, ptr, i32, i32, i32, ptr, i32, i64, i32, ptr, %struct.digestdata, %struct.digestdata, %struct.auth, %struct.auth, %struct.Curl_async, ptr, i8, %struct.curltime, %struct.Curl_tree, %struct.Curl_llist, [15 x %struct.time_node], ptr, ptr, i64, i64, i64, i64, [32 x i8], i64, ptr, ptr, ptr, %struct.urlpieces, ptr, ptr, ptr, ptr, ptr, i64, %struct.dynbuf, %struct.Curl_llist, [2 x %struct.curl_header], ptr, i32, ptr, ptr, %struct.store_netrc, %struct.dynamically_allocated_data, i8, i8, i8, i8, i32 }
%struct.digestdata = type { ptr, ptr, ptr, ptr, ptr, ptr, i32, i8, i8 }
%struct.auth = type { i64, i64, i64, i8 }
%struct.Curl_async = type { ptr, ptr, ptr, ptr, i32, i32, i8 }
%struct.Curl_tree = type { ptr, ptr, ptr, ptr, %struct.curltime, ptr }
%struct.time_node = type { %struct.Curl_llist_node, %struct.curltime, i32 }
%struct.urlpieces = type { ptr, ptr, ptr, ptr, ptr, ptr, ptr, ptr }
%struct.dynbuf = type { ptr, i64, i64, i64 }
%struct.Curl_llist = type { ptr, ptr, ptr, i64 }
%struct.curl_header = type { ptr, ptr, i64, i64, i32, ptr }
%struct.store_netrc = type { %struct.dynbuf, ptr, i8 }
%struct.dynamically_allocated_data = type { ptr, ptr, ptr, ptr, ptr, ptr, ptr, ptr, ptr, ptr, ptr, ptr, ptr, ptr }
%struct.PureInfo = type { i32, i32, i32, i64, i64, i64, i64, i64, i64, i64, ptr, ptr, i64, i32, %struct.ip_quadruple, i32, ptr, i32, %struct.curl_certinfo, i32, i8 }
%struct.ip_quadruple = type { [46 x i8], [46 x i8], i32, i32 }
%struct.curl_certinfo = type { i32, ptr }
%struct.curl_tlssessioninfo = type { i32, ptr }
%struct.pingpong = type { i64, i8, ptr, i64, i64, %struct.curltime, i64, %struct.dynbuf, %struct.dynbuf, i64, i64, ptr, ptr }
%struct.connectdata = type { %struct.Curl_llist_node, ptr, ptr, i64, ptr, i64, ptr, ptr, %struct.hostname, ptr, ptr, %struct.hostname, %struct.proxy_info, %struct.proxy_info, %struct.ip_quadruple, %struct.ip_quadruple, ptr, ptr, ptr, ptr, ptr, %struct.curltime, %struct.curltime, %struct.curltime, [2 x i32], [2 x ptr], [2 x ptr], [2 x ptr], %struct.anon, %struct.easy_pollset, %struct.ssl_primary_config, %struct.ssl_primary_config, %struct.ConnectBits, ptr, ptr, %struct.curltime, i32, i32, %struct.Curl_llist, i32, i32, %struct.ntlmdata, %struct.ntlmdata, %union.anon.1, ptr, ptr, i16, i32, i32, i32, i32, i16, i16, i8, i8, i8, i8, i8, i8, i8 }
%struct.hostname = type { ptr, ptr, ptr, ptr }
%struct.proxy_info = type { %struct.hostname, i32, i8, ptr, ptr }
%struct.anon = type { [2 x %struct.curltime], i32 }
%struct.ConnectBits = type { i64 }
%struct.ntlmdata = type { i32, [8 x i8], i32, ptr }
%union.anon.1 = type { %struct.ftp_conn }
%struct.ftp_conn = type { %struct.pingpong, ptr, ptr, ptr, ptr, ptr, ptr, ptr, i8, i64, ptr, i64, i32, i32, i32, i32, i32, i16, i8, i8, i8, i8, i8 }

@.str = private unnamed_addr constant [24 x i8] c"server response timeout\00", align 1
@.str.1 = private unnamed_addr constant [18 x i8] c"select/poll error\00", align 1

; Function Attrs: nounwind uwtable
define hidden i64 @Curl_pp_state_timeout(ptr noundef %0, ptr noundef %1, i1 noundef zeroext %2) #0 {
  %4 = alloca ptr, align 8
  %5 = alloca ptr, align 8
  %6 = alloca i8, align 1
  %7 = alloca ptr, align 8
  %8 = alloca i64, align 8
  %9 = alloca i64, align 8
  %10 = alloca %struct.curltime, align 8
  %11 = alloca i64, align 8
  %12 = alloca %struct.curltime, align 8
  store ptr %0, ptr %4, align 8, !tbaa !3
  store ptr %1, ptr %5, align 8, !tbaa !8
  %13 = zext i1 %2 to i8
  store i8 %13, ptr %6, align 1, !tbaa !10
  call void @llvm.lifetime.start.p0(i64 8, ptr %7) #7
  %14 = load ptr, ptr %4, align 8, !tbaa !3
  %15 = getelementptr inbounds nuw %struct.Curl_easy, ptr %14, i32 0, i32 3
  %16 = load ptr, ptr %15, align 8, !tbaa !12
  store ptr %16, ptr %7, align 8, !tbaa !81
  call void @llvm.lifetime.start.p0(i64 8, ptr %8) #7
  call void @llvm.lifetime.start.p0(i64 8, ptr %9) #7
  %17 = load ptr, ptr %4, align 8, !tbaa !3
  %18 = getelementptr inbounds nuw %struct.Curl_easy, ptr %17, i32 0, i32 16
  %19 = getelementptr inbounds nuw %struct.UserDefined, ptr %18, i32 0, i32 92
  %20 = load i32, ptr %19, align 4, !tbaa !82
  %21 = icmp ne i32 %20, 0
  br i1 %21, label %22, label %28

22:                                               ; preds = %3
  %23 = load ptr, ptr %4, align 8, !tbaa !3
  %24 = getelementptr inbounds nuw %struct.Curl_easy, ptr %23, i32 0, i32 16
  %25 = getelementptr inbounds nuw %struct.UserDefined, ptr %24, i32 0, i32 92
  %26 = load i32, ptr %25, align 4, !tbaa !82
  %27 = zext i32 %26 to i64
  br label %32

28:                                               ; preds = %3
  %29 = load ptr, ptr %5, align 8, !tbaa !8
  %30 = getelementptr inbounds nuw %struct.pingpong, ptr %29, i32 0, i32 6
  %31 = load i64, ptr %30, align 8, !tbaa !83
  br label %32

32:                                               ; preds = %28, %22
  %33 = phi i64 [ %27, %22 ], [ %31, %28 ]
  store i64 %33, ptr %9, align 8, !tbaa !85
  %34 = load i64, ptr %9, align 8, !tbaa !85
  %35 = call { i64, i32 } @Curl_now()
  %36 = getelementptr inbounds nuw { i64, i32 }, ptr %10, i32 0, i32 0
  %37 = extractvalue { i64, i32 } %35, 0
  store i64 %37, ptr %36, align 8
  %38 = getelementptr inbounds nuw { i64, i32 }, ptr %10, i32 0, i32 1
  %39 = extractvalue { i64, i32 } %35, 1
  store i32 %39, ptr %38, align 8
  %40 = load ptr, ptr %5, align 8, !tbaa !8
  %41 = getelementptr inbounds nuw %struct.pingpong, ptr %40, i32 0, i32 5
  %42 = getelementptr inbounds nuw { i64, i32 }, ptr %10, i32 0, i32 0
  %43 = load i64, ptr %42, align 8
  %44 = getelementptr inbounds nuw { i64, i32 }, ptr %10, i32 0, i32 1
  %45 = load i32, ptr %44, align 8
  %46 = getelementptr inbounds nuw { i64, i32 }, ptr %41, i32 0, i32 0
  %47 = load i64, ptr %46, align 8
  %48 = getelementptr inbounds nuw { i64, i32 }, ptr %41, i32 0, i32 1
  %49 = load i32, ptr %48, align 8
  %50 = call i64 @Curl_timediff(i64 %43, i32 %45, i64 %47, i32 %49)
  %51 = sub nsw i64 %34, %50
  store i64 %51, ptr %8, align 8, !tbaa !85
  %52 = load ptr, ptr %4, align 8, !tbaa !3
  %53 = getelementptr inbounds nuw %struct.Curl_easy, ptr %52, i32 0, i32 16
  %54 = getelementptr inbounds nuw %struct.UserDefined, ptr %53, i32 0, i32 89
  %55 = load i32, ptr %54, align 8, !tbaa !86
  %56 = icmp ne i32 %55, 0
  br i1 %56, label %57, label %92

57:                                               ; preds = %32
  %58 = load i8, ptr %6, align 1, !tbaa !10, !range !87, !noundef !88
  %59 = trunc i8 %58 to i1
  br i1 %59, label %92, label %60

60:                                               ; preds = %57
  call void @llvm.lifetime.start.p0(i64 8, ptr %11) #7
  %61 = load ptr, ptr %4, align 8, !tbaa !3
  %62 = getelementptr inbounds nuw %struct.Curl_easy, ptr %61, i32 0, i32 16
  %63 = getelementptr inbounds nuw %struct.UserDefined, ptr %62, i32 0, i32 89
  %64 = load i32, ptr %63, align 8, !tbaa !86
  %65 = zext i32 %64 to i64
  %66 = call { i64, i32 } @Curl_now()
  %67 = getelementptr inbounds nuw { i64, i32 }, ptr %12, i32 0, i32 0
  %68 = extractvalue { i64, i32 } %66, 0
  store i64 %68, ptr %67, align 8
  %69 = getelementptr inbounds nuw { i64, i32 }, ptr %12, i32 0, i32 1
  %70 = extractvalue { i64, i32 } %66, 1
  store i32 %70, ptr %69, align 8
  %71 = load ptr, ptr %7, align 8, !tbaa !81
  %72 = getelementptr inbounds nuw %struct.connectdata, ptr %71, i32 0, i32 21
  %73 = getelementptr inbounds nuw { i64, i32 }, ptr %12, i32 0, i32 0
  %74 = load i64, ptr %73, align 8
  %75 = getelementptr inbounds nuw { i64, i32 }, ptr %12, i32 0, i32 1
  %76 = load i32, ptr %75, align 8
  %77 = getelementptr inbounds nuw { i64, i32 }, ptr %72, i32 0, i32 0
  %78 = load i64, ptr %77, align 8
  %79 = getelementptr inbounds nuw { i64, i32 }, ptr %72, i32 0, i32 1
  %80 = load i32, ptr %79, align 8
  %81 = call i64 @Curl_timediff(i64 %74, i32 %76, i64 %78, i32 %80)
  %82 = sub nsw i64 %65, %81
  store i64 %82, ptr %11, align 8, !tbaa !85
  %83 = load i64, ptr %8, align 8, !tbaa !85
  %84 = load i64, ptr %11, align 8, !tbaa !85
  %85 = icmp slt i64 %83, %84
  br i1 %85, label %86, label %88

86:                                               ; preds = %60
  %87 = load i64, ptr %8, align 8, !tbaa !85
  br label %90

88:                                               ; preds = %60
  %89 = load i64, ptr %11, align 8, !tbaa !85
  br label %90

90:                                               ; preds = %88, %86
  %91 = phi i64 [ %87, %86 ], [ %89, %88 ]
  store i64 %91, ptr %8, align 8, !tbaa !85
  call void @llvm.lifetime.end.p0(i64 8, ptr %11) #7
  br label %92

92:                                               ; preds = %90, %57, %32
  %93 = load i64, ptr %8, align 8, !tbaa !85
  call void @llvm.lifetime.end.p0(i64 8, ptr %9) #7
  call void @llvm.lifetime.end.p0(i64 8, ptr %8) #7
  call void @llvm.lifetime.end.p0(i64 8, ptr %7) #7
  ret i64 %93
}

; Function Attrs: nounwind uwtable
define hidden i32 @Curl_pp_statemach(ptr noundef %0, ptr noundef %1, i1 noundef zeroext %2, i1 noundef zeroext %3) #0 {
  %5 = alloca i32, align 4
  %6 = alloca ptr, align 8
  %7 = alloca ptr, align 8
  %8 = alloca i8, align 1
  %9 = alloca i8, align 1
  %10 = alloca ptr, align 8
  %11 = alloca i32, align 4
  %12 = alloca i32, align 4
  %13 = alloca i64, align 8
  %14 = alloca i64, align 8
  %15 = alloca i32, align 4
  %16 = alloca i32, align 4
  %17 = alloca %struct.curltime, align 8
  store ptr %0, ptr %6, align 8, !tbaa !3
  store ptr %1, ptr %7, align 8, !tbaa !8
  %18 = zext i1 %2 to i8
  store i8 %18, ptr %8, align 1, !tbaa !10
  %19 = zext i1 %3 to i8
  store i8 %19, ptr %9, align 1, !tbaa !10
  call void @llvm.lifetime.start.p0(i64 8, ptr %10) #7
  %20 = load ptr, ptr %6, align 8, !tbaa !3
  %21 = getelementptr inbounds nuw %struct.Curl_easy, ptr %20, i32 0, i32 3
  %22 = load ptr, ptr %21, align 8, !tbaa !12
  store ptr %22, ptr %10, align 8, !tbaa !81
  call void @llvm.lifetime.start.p0(i64 4, ptr %11) #7
  %23 = load ptr, ptr %10, align 8, !tbaa !81
  %24 = getelementptr inbounds nuw %struct.connectdata, ptr %23, i32 0, i32 24
  %25 = getelementptr inbounds [2 x i32], ptr %24, i64 0, i64 0
  %26 = load i32, ptr %25, align 8, !tbaa !89
  store i32 %26, ptr %11, align 4, !tbaa !89
  call void @llvm.lifetime.start.p0(i64 4, ptr %12) #7
  call void @llvm.lifetime.start.p0(i64 8, ptr %13) #7
  call void @llvm.lifetime.start.p0(i64 8, ptr %14) #7
  %27 = load ptr, ptr %6, align 8, !tbaa !3
  %28 = load ptr, ptr %7, align 8, !tbaa !8
  %29 = load i8, ptr %9, align 1, !tbaa !10, !range !87, !noundef !88
  %30 = trunc i8 %29 to i1
  %31 = call i64 @Curl_pp_state_timeout(ptr noundef %27, ptr noundef %28, i1 noundef zeroext %30)
  store i64 %31, ptr %14, align 8, !tbaa !85
  call void @llvm.lifetime.start.p0(i64 4, ptr %15) #7
  store i32 0, ptr %15, align 4, !tbaa !89
  %32 = load i64, ptr %14, align 8, !tbaa !85
  %33 = icmp sle i64 %32, 0
  br i1 %33, label %34, label %36

34:                                               ; preds = %4
  %35 = load ptr, ptr %6, align 8, !tbaa !3
  call void (ptr, ptr, ...) @Curl_failf(ptr noundef %35, ptr noundef @.str)
  store i32 28, ptr %5, align 4
  store i32 1, ptr %16, align 4
  br label %135

36:                                               ; preds = %4
  %37 = load i8, ptr %8, align 1, !tbaa !10, !range !87, !noundef !88
  %38 = trunc i8 %37 to i1
  br i1 %38, label %39, label %46

39:                                               ; preds = %36
  store i64 1000, ptr %13, align 8, !tbaa !85
  %40 = load i64, ptr %14, align 8, !tbaa !85
  %41 = load i64, ptr %13, align 8, !tbaa !85
  %42 = icmp slt i64 %40, %41
  br i1 %42, label %43, label %45

43:                                               ; preds = %39
  %44 = load i64, ptr %14, align 8, !tbaa !85
  store i64 %44, ptr %13, align 8, !tbaa !85
  br label %45

45:                                               ; preds = %43, %39
  br label %47

46:                                               ; preds = %36
  store i64 0, ptr %13, align 8, !tbaa !85
  br label %47

47:                                               ; preds = %46, %45
  %48 = load ptr, ptr %6, align 8, !tbaa !3
  %49 = call zeroext i1 @Curl_conn_data_pending(ptr noundef %48, i32 noundef 0)
  br i1 %49, label %50, label %51

50:                                               ; preds = %47
  store i32 1, ptr %12, align 4, !tbaa !89
  br label %89

51:                                               ; preds = %47
  %52 = load ptr, ptr %7, align 8, !tbaa !8
  %53 = getelementptr inbounds nuw %struct.pingpong, ptr %52, i32 0, i32 9
  %54 = load i64, ptr %53, align 8, !tbaa !90
  %55 = icmp ne i64 %54, 0
  br i1 %55, label %56, label %57

56:                                               ; preds = %51
  store i32 1, ptr %12, align 4, !tbaa !89
  br label %88

57:                                               ; preds = %51
  %58 = load ptr, ptr %7, align 8, !tbaa !8
  %59 = getelementptr inbounds nuw %struct.pingpong, ptr %58, i32 0, i32 3
  %60 = load i64, ptr %59, align 8, !tbaa !91
  %61 = icmp ne i64 %60, 0
  br i1 %61, label %66, label %62

62:                                               ; preds = %57
  %63 = load ptr, ptr %6, align 8, !tbaa !3
  %64 = call zeroext i1 @Curl_conn_data_pending(ptr noundef %63, i32 noundef 0)
  br i1 %64, label %65, label %66

65:                                               ; preds = %62
  store i32 1, ptr %12, align 4, !tbaa !89
  br label %87

66:                                               ; preds = %62, %57
  %67 = load ptr, ptr %7, align 8, !tbaa !8
  %68 = getelementptr inbounds nuw %struct.pingpong, ptr %67, i32 0, i32 3
  %69 = load i64, ptr %68, align 8, !tbaa !91
  %70 = icmp ne i64 %69, 0
  br i1 %70, label %71, label %72

71:                                               ; preds = %66
  br label %74

72:                                               ; preds = %66
  %73 = load i32, ptr %11, align 4, !tbaa !89
  br label %74

74:                                               ; preds = %72, %71
  %75 = phi i32 [ -1, %71 ], [ %73, %72 ]
  %76 = load ptr, ptr %7, align 8, !tbaa !8
  %77 = getelementptr inbounds nuw %struct.pingpong, ptr %76, i32 0, i32 3
  %78 = load i64, ptr %77, align 8, !tbaa !91
  %79 = icmp ne i64 %78, 0
  br i1 %79, label %80, label %82

80:                                               ; preds = %74
  %81 = load i32, ptr %11, align 4, !tbaa !89
  br label %83

82:                                               ; preds = %74
  br label %83

83:                                               ; preds = %82, %80
  %84 = phi i32 [ %81, %80 ], [ -1, %82 ]
  %85 = load i64, ptr %13, align 8, !tbaa !85
  %86 = call i32 @Curl_socket_check(i32 noundef %75, i32 noundef -1, i32 noundef %84, i64 noundef %85)
  store i32 %86, ptr %12, align 4, !tbaa !89
  br label %87

87:                                               ; preds = %83, %65
  br label %88

88:                                               ; preds = %87, %56
  br label %89

89:                                               ; preds = %88, %50
  %90 = load i8, ptr %8, align 1, !tbaa !10, !range !87, !noundef !88
  %91 = trunc i8 %90 to i1
  br i1 %91, label %92, label %115

92:                                               ; preds = %89
  %93 = load ptr, ptr %6, align 8, !tbaa !3
  %94 = call i32 @Curl_pgrsUpdate(ptr noundef %93)
  %95 = icmp ne i32 %94, 0
  br i1 %95, label %96, label %97

96:                                               ; preds = %92
  store i32 42, ptr %15, align 4, !tbaa !89
  br label %109

97:                                               ; preds = %92
  %98 = load ptr, ptr %6, align 8, !tbaa !3
  %99 = call { i64, i32 } @Curl_now()
  %100 = getelementptr inbounds nuw { i64, i32 }, ptr %17, i32 0, i32 0
  %101 = extractvalue { i64, i32 } %99, 0
  store i64 %101, ptr %100, align 8
  %102 = getelementptr inbounds nuw { i64, i32 }, ptr %17, i32 0, i32 1
  %103 = extractvalue { i64, i32 } %99, 1
  store i32 %103, ptr %102, align 8
  %104 = getelementptr inbounds nuw { i64, i32 }, ptr %17, i32 0, i32 0
  %105 = load i64, ptr %104, align 8
  %106 = getelementptr inbounds nuw { i64, i32 }, ptr %17, i32 0, i32 1
  %107 = load i32, ptr %106, align 8
  %108 = call i32 @Curl_speedcheck(ptr noundef %98, i64 %105, i32 %107)
  store i32 %108, ptr %15, align 4, !tbaa !89
  br label %109

109:                                              ; preds = %97, %96
  %110 = load i32, ptr %15, align 4, !tbaa !89
  %111 = icmp ne i32 %110, 0
  br i1 %111, label %112, label %114

112:                                              ; preds = %109
  %113 = load i32, ptr %15, align 4, !tbaa !89
  store i32 %113, ptr %5, align 4
  store i32 1, ptr %16, align 4
  br label %135

114:                                              ; preds = %109
  br label %115

115:                                              ; preds = %114, %89
  %116 = load i32, ptr %12, align 4, !tbaa !89
  %117 = icmp eq i32 %116, -1
  br i1 %117, label %118, label %120

118:                                              ; preds = %115
  %119 = load ptr, ptr %6, align 8, !tbaa !3
  call void (ptr, ptr, ...) @Curl_failf(ptr noundef %119, ptr noundef @.str.1)
  store i32 27, ptr %15, align 4, !tbaa !89
  br label %133

120:                                              ; preds = %115
  %121 = load i32, ptr %12, align 4, !tbaa !89
  %122 = icmp ne i32 %121, 0
  br i1 %122, label %123, label %132

123:                                              ; preds = %120
  %124 = load ptr, ptr %7, align 8, !tbaa !8
  %125 = getelementptr inbounds nuw %struct.pingpong, ptr %124, i32 0, i32 11
  %126 = load ptr, ptr %125, align 8, !tbaa !92
  %127 = load ptr, ptr %6, align 8, !tbaa !3
  %128 = load ptr, ptr %6, align 8, !tbaa !3
  %129 = getelementptr inbounds nuw %struct.Curl_easy, ptr %128, i32 0, i32 3
  %130 = load ptr, ptr %129, align 8, !tbaa !12
  %131 = call i32 %126(ptr noundef %127, ptr noundef %130)
  store i32 %131, ptr %15, align 4, !tbaa !89
  br label %132

132:                                              ; preds = %123, %120
  br label %133

133:                                              ; preds = %132, %118
  %134 = load i32, ptr %15, align 4, !tbaa !89
  store i32 %134, ptr %5, align 4
  store i32 1, ptr %16, align 4
  br label %135

135:                                              ; preds = %133, %112, %34
  call void @llvm.lifetime.end.p0(i64 4, ptr %15) #7
  call void @llvm.lifetime.end.p0(i64 8, ptr %14) #7
  call void @llvm.lifetime.end.p0(i64 8, ptr %13) #7
  call void @llvm.lifetime.end.p0(i64 4, ptr %12) #7
  call void @llvm.lifetime.end.p0(i64 4, ptr %11) #7
  call void @llvm.lifetime.end.p0(i64 8, ptr %10) #7
  %136 = load i32, ptr %5, align 4
  ret i32 %136
}