; Function Attrs: nounwind uwtable
define hidden i32 @Curl_pp_statemach(ptr noundef %0, ptr noundef readonly captures(none) %1, i1 noundef zeroext %2, i1 noundef zeroext %3) local_unnamed_addr #0 {
  %5 = getelementptr inbounds nuw i8, ptr %0, i64 24
  %6 = load ptr, ptr %5, align 8, !tbaa !3
  %7 = getelementptr inbounds nuw i8, ptr %6, i64 568
  %8 = load i32, ptr %7, align 8, !tbaa !80
  %9 = getelementptr inbounds nuw i8, ptr %0, i64 2540
  %10 = load i32, ptr %9, align 4, !tbaa !75
  %.not.i = icmp eq i32 %10, 0
  br i1 %.not.i, label %13, label %11

11:                                               ; preds = %4
  %12 = zext i32 %10 to i64
  br label %16

13:                                               ; preds = %4
  %14 = getelementptr inbounds nuw i8, ptr %1, i64 56
  %15 = load i64, ptr %14, align 8, !tbaa !76
  br label %16

16:                                               ; preds = %13, %11
  %17 = phi i64 [ %12, %11 ], [ %15, %13 ]
  %18 = tail call { i64, i32 } @Curl_now() #10
  %19 = extractvalue { i64, i32 } %18, 0
  %20 = extractvalue { i64, i32 } %18, 1
  %21 = getelementptr inbounds nuw i8, ptr %1, i64 40
  %22 = load i64, ptr %21, align 8
  %23 = getelementptr inbounds nuw i8, ptr %1, i64 48
  %24 = load i32, ptr %23, align 8
  %25 = tail call i64 @Curl_timediff(i64 %19, i32 %20, i64 %22, i32 %24) #10
  %26 = sub nsw i64 %17, %25
  %27 = getelementptr inbounds nuw i8, ptr %0, i64 2528
  %28 = load i32, ptr %27, align 8, !tbaa !79
  %.not18.i = icmp eq i32 %28, 0
  %brmerge.i = or i1 %3, %.not18.i
  br i1 %brmerge.i, label %Curl_pp_state_timeout.exit, label %29

29:                                               ; preds = %16
  %30 = zext i32 %28 to i64
  %31 = tail call { i64, i32 } @Curl_now() #10
  %32 = extractvalue { i64, i32 } %31, 0
  %33 = extractvalue { i64, i32 } %31, 1
  %34 = getelementptr inbounds nuw i8, ptr %6, i64 520
  %35 = load i64, ptr %34, align 8
  %36 = getelementptr inbounds nuw i8, ptr %6, i64 528
  %37 = load i32, ptr %36, align 8
  %38 = tail call i64 @Curl_timediff(i64 %32, i32 %33, i64 %35, i32 %37) #10
  %39 = sub nsw i64 %30, %38
  %40 = tail call i64 @llvm.smin.i64(i64 %26, i64 %39)
  br label %Curl_pp_state_timeout.exit

Curl_pp_state_timeout.exit:                       ; preds = %16, %29
  %.0.i = phi i64 [ %40, %29 ], [ %26, %16 ]
  %41 = icmp slt i64 %.0.i, 1
  br i1 %41, label %42, label %43

42:                                               ; preds = %Curl_pp_state_timeout.exit
  tail call void (ptr, ptr, ...) @Curl_failf(ptr noundef nonnull %0, ptr noundef nonnull @.str) #10
  br label %.thread

43:                                               ; preds = %Curl_pp_state_timeout.exit
  %spec.select = tail call i64 @llvm.umin.i64(i64 %.0.i, i64 1000)
  %.034 = select i1 %2, i64 %spec.select, i64 0
  %44 = tail call zeroext i1 @Curl_conn_data_pending(ptr noundef nonnull %0, i32 noundef 0) #10
  br i1 %44, label %58, label %45

45:                                               ; preds = %43
  %46 = getelementptr inbounds nuw i8, ptr %1, i64 128
  %47 = load i64, ptr %46, align 8, !tbaa !81
  %.not = icmp eq i64 %47, 0
  br i1 %.not, label %48, label %58

48:                                               ; preds = %45
  %49 = getelementptr inbounds nuw i8, ptr %1, i64 24
  %50 = load i64, ptr %49, align 8, !tbaa !82
  %.not36 = icmp eq i64 %50, 0
  br i1 %.not36, label %51, label %.thread48

51:                                               ; preds = %48
  %52 = tail call zeroext i1 @Curl_conn_data_pending(ptr noundef nonnull %0, i32 noundef 0) #10
  br i1 %52, label %58, label %53

53:                                               ; preds = %51
  %.pre = load i64, ptr %49, align 8, !tbaa !82
  %.pre.fr = freeze i64 %.pre
  %54 = icmp eq i64 %.pre.fr, 0
  %spec.select53 = select i1 %54, i32 %8, i32 -1
  %spec.select54 = select i1 %54, i32 -1, i32 %8
  br label %.thread48

.thread48:                                        ; preds = %53, %48
  %55 = phi i32 [ -1, %48 ], [ %spec.select53, %53 ]
  %56 = phi i32 [ %8, %48 ], [ %spec.select54, %53 ]
  %57 = tail call i32 @Curl_socket_check(i32 noundef %55, i32 noundef -1, i32 noundef %56, i64 noundef %.034) #10
  br label %58

58:                                               ; preds = %51, %45, %43, %.thread48
  %.032 = phi i32 [ %57, %.thread48 ], [ 1, %43 ], [ 1, %45 ], [ 1, %51 ]
  br i1 %2, label %59, label %66

59:                                               ; preds = %58
  %60 = tail call i32 @Curl_pgrsUpdate(ptr noundef nonnull %0) #10
  %.not38 = icmp eq i32 %60, 0
  br i1 %.not38, label %61, label %.thread

61:                                               ; preds = %59
  %62 = tail call { i64, i32 } @Curl_now() #10
  %63 = extractvalue { i64, i32 } %62, 0
  %64 = extractvalue { i64, i32 } %62, 1
  %65 = tail call i32 @Curl_speedcheck(ptr noundef nonnull %0, i64 %63, i32 %64) #10
  %.not39 = icmp eq i32 %65, 0
  br i1 %.not39, label %66, label %.thread

66:                                               ; preds = %61, %58
  switch i32 %.032, label %68 [
    i32 -1, label %67
    i32 0, label %.thread
  ]

67:                                               ; preds = %66
  tail call void (ptr, ptr, ...) @Curl_failf(ptr noundef nonnull %0, ptr noundef nonnull @.str.1) #10
  br label %.thread

68:                                               ; preds = %66
  %69 = getelementptr inbounds nuw i8, ptr %1, i64 144
  %70 = load ptr, ptr %69, align 8, !tbaa !83
  %71 = load ptr, ptr %5, align 8, !tbaa !3
  %72 = tail call i32 %70(ptr noundef nonnull %0, ptr noundef %71) #10
  br label %.thread

.thread:                                          ; preds = %59, %67, %68, %66, %61, %42
  %.0 = phi i32 [ 28, %42 ], [ %65, %61 ], [ 27, %67 ], [ %72, %68 ], [ %.032, %66 ], [ 42, %59 ]
  ret i32 %.0
}